target datalayout = "e-m:e-p270:32:32-p271:32:32-p272:64:64-i64:64-i128:128-f80:128-n8:16:32:64-S128"
target triple = "x86_64-pc-linux-gnu"

%struct.reassembly_table = type { ptr, ptr, ptr, ptr, ptr }
%struct.reassembly_table_functions = type { ptr, ptr, ptr, ptr, ptr, ptr }

@connection_info_tree = internal global ptr null, align 8
@periodic_adv_info_tree = internal global ptr null, align 8
@connectediso_connection_info_tree = internal global ptr null, align 8
@broadcastiso_connection_info_tree = internal global ptr null, align 8
@connection_parameter_info_tree = internal global ptr null, align 8
@adi_to_first_frame_tree = internal global ptr null, align 8
@.str.821 = private unnamed_addr constant [32 x i8] c"Bluetooth Low Energy Link Layer\00", align 1
@.str.822 = private unnamed_addr constant [9 x i8] c"BT LE LL\00", align 1
@.str.823 = private unnamed_addr constant [5 x i8] c"btle\00", align 1
@proto_btle = internal global i32 0, align 4
@btle_handle = internal global ptr null, align 8
@.str.824 = private unnamed_addr constant [10 x i8] c"Bluetooth\00", align 1
@.str.825 = private unnamed_addr constant [8 x i8] c"version\00", align 1
@.str.826 = private unnamed_addr constant [36 x i8] c"Bluetooth LE LL version: 6.0 (Core)\00", align 1
@.str.827 = private unnamed_addr constant [49 x i8] c"Version of protocol supported by this dissector.\00", align 1
@.str.828 = private unnamed_addr constant [18 x i8] c"detect_retransmit\00", align 1
@.str.829 = private unnamed_addr constant [22 x i8] c"Detect retransmission\00", align 1
@.str.830 = private unnamed_addr constant [52 x i8] c"Detect retransmission based on SN (Sequence Number)\00", align 1
@btle_detect_retransmit = internal global i8 1, align 1
@btle_l2cap_msg_reassembly_table = internal global %struct.reassembly_table zeroinitializer, align 8
@addresses_reassembly_table_functions = external constant %struct.reassembly_table_functions, align 8
@btle_ea_host_advertising_data_reassembly_table = internal global %struct.reassembly_table zeroinitializer, align 8

; Function Attrs: null_pointer_is_valid sspstrong uwtable
define hidden void @proto_register_btle() #0 {
  %1 = alloca ptr, align 8
  %2 = alloca ptr, align 8
  call void @llvm.lifetime.start.p0(i64 8, ptr %1) #13
  call void @llvm.lifetime.start.p0(i64 8, ptr %2) #13
  %3 = call ptr @wmem_epan_scope()
  %4 = call ptr @wmem_file_scope()
  %5 = call noalias ptr @wmem_tree_new_autoreset(ptr noundef %3, ptr noundef %4)
  store ptr %5, ptr @connection_info_tree, align 8
  %6 = call ptr @wmem_epan_scope()
  %7 = call ptr @wmem_file_scope()
  %8 = call noalias ptr @wmem_tree_new_autoreset(ptr noundef %6, ptr noundef %7)
  store ptr %8, ptr @periodic_adv_info_tree, align 8
  %9 = call ptr @wmem_epan_scope()
  %10 = call ptr @wmem_file_scope()
  %11 = call noalias ptr @wmem_tree_new_autoreset(ptr noundef %9, ptr noundef %10)
  store ptr %11, ptr @connectediso_connection_info_tree, align 8
  %12 = call ptr @wmem_epan_scope()
  %13 = call ptr @wmem_file_scope()
  %14 = call noalias ptr @wmem_tree_new_autoreset(ptr noundef %12, ptr noundef %13)
  store ptr %14, ptr @broadcastiso_connection_info_tree, align 8
  %15 = call ptr @wmem_epan_scope()
  %16 = call ptr @wmem_file_scope()
  %17 = call noalias ptr @wmem_tree_new_autoreset(ptr noundef %15, ptr noundef %16)
  store ptr %17, ptr @connection_parameter_info_tree, align 8
  %18 = call ptr @wmem_epan_scope()
  %19 = call ptr @wmem_file_scope()
  %20 = call noalias ptr @wmem_tree_new_autoreset(ptr noundef %18, ptr noundef %19)
  store ptr %20, ptr @adi_to_first_frame_tree, align 8
  %21 = call i32 @proto_register_protocol(ptr noundef @.str.821, ptr noundef @.str.822, ptr noundef @.str.823)
  store i32 %21, ptr @proto_btle, align 4
  %22 = load i32, ptr @proto_btle, align 4
  %23 = call ptr @register_dissector(ptr noundef @.str.823, ptr noundef @dissect_btle, i32 noundef %22)
  store ptr %23, ptr @btle_handle, align 8
  %24 = load i32, ptr @proto_btle, align 4
  call void @proto_register_field_array(i32 noundef %24, ptr noundef @proto_register_btle.hf, i32 noundef 456)
  call void @proto_register_subtree_array(ptr noundef @proto_register_btle.ett, i32 noundef 31)
  %25 = load i32, ptr @proto_btle, align 4
  %26 = call ptr @expert_register_protocol(i32 noundef %25)
  store ptr %26, ptr %2, align 8
  %27 = load ptr, ptr %2, align 8
  call void @expert_register_field_array(ptr noundef %27, ptr noundef @proto_register_btle.ei, i32 noundef 13)
  %28 = load i32, ptr @proto_btle, align 4
  %29 = call ptr @prefs_register_protocol_subtree(ptr noundef @.str.824, i32 noundef %28, ptr noundef null)
  store ptr %29, ptr %1, align 8
  %30 = load ptr, ptr %1, align 8
  call void @prefs_register_static_text_preference(ptr noundef %30, ptr noundef @.str.825, ptr noundef @.str.826, ptr noundef @.str.827)
  %31 = load ptr, ptr %1, align 8
  call void @prefs_register_bool_preference(ptr noundef %31, ptr noundef @.str.828, ptr noundef @.str.829, ptr noundef @.str.830, ptr noundef @btle_detect_retransmit)
  call void @reassembly_table_register(ptr noundef @btle_l2cap_msg_reassembly_table, ptr noundef @addresses_reassembly_table_functions)
  call void @reassembly_table_register(ptr noundef @btle_ea_host_advertising_data_reassembly_table, ptr noundef @addresses_reassembly_table_functions)
  call void @register_init_routine(ptr noundef @btle_init)
  call void @llvm.lifetime.end.p0(i64 8, ptr %2) #13
  call void @llvm.lifetime.end.p0(i64 8, ptr %1) #13
  ret void
}