; Function Attrs: null_pointer_is_valid sspstrong uwtable
define hidden void @proto_register_btle() local_unnamed_addr #0 {
  %1 = tail call ptr @wmem_epan_scope()
  %2 = tail call ptr @wmem_file_scope()
  %3 = tail call noalias ptr @wmem_tree_new_autoreset(ptr noundef %1, ptr noundef %2)
  store ptr %3, ptr @connection_info_tree, align 8
  %4 = tail call ptr @wmem_epan_scope()
  %5 = tail call ptr @wmem_file_scope()
  %6 = tail call noalias ptr @wmem_tree_new_autoreset(ptr noundef %4, ptr noundef %5)
  store ptr %6, ptr @periodic_adv_info_tree, align 8
  %7 = tail call ptr @wmem_epan_scope()
  %8 = tail call ptr @wmem_file_scope()
  %9 = tail call noalias ptr @wmem_tree_new_autoreset(ptr noundef %7, ptr noundef %8)
  store ptr %9, ptr @connectediso_connection_info_tree, align 8
  %10 = tail call ptr @wmem_epan_scope()
  %11 = tail call ptr @wmem_file_scope()
  %12 = tail call noalias ptr @wmem_tree_new_autoreset(ptr noundef %10, ptr noundef %11)
  store ptr %12, ptr @broadcastiso_connection_info_tree, align 8
  %13 = tail call ptr @wmem_epan_scope()
  %14 = tail call ptr @wmem_file_scope()
  %15 = tail call noalias ptr @wmem_tree_new_autoreset(ptr noundef %13, ptr noundef %14)
  store ptr %15, ptr @connection_parameter_info_tree, align 8
  %16 = tail call ptr @wmem_epan_scope()
  %17 = tail call ptr @wmem_file_scope()
  %18 = tail call noalias ptr @wmem_tree_new_autoreset(ptr noundef %16, ptr noundef %17)
  store ptr %18, ptr @adi_to_first_frame_tree, align 8
  %19 = tail call i32 @proto_register_protocol(ptr noundef nonnull @.str.821, ptr noundef nonnull @.str.822, ptr noundef nonnull @.str.823)
  store i32 %19, ptr @proto_btle, align 4
  %20 = tail call ptr @register_dissector(ptr noundef nonnull @.str.823, ptr noundef nonnull @dissect_btle, i32 noundef %19)
  store ptr %20, ptr @btle_handle, align 8
  %21 = load i32, ptr @proto_btle, align 4
  tail call void @proto_register_field_array(i32 noundef %21, ptr noundef nonnull @proto_register_btle.hf, i32 noundef 456)
  tail call void @proto_register_subtree_array(ptr noundef nonnull @proto_register_btle.ett, i32 noundef 31)
  %22 = load i32, ptr @proto_btle, align 4
  %23 = tail call ptr @expert_register_protocol(i32 noundef %22)
  tail call void @expert_register_field_array(ptr noundef %23, ptr noundef nonnull @proto_register_btle.ei, i32 noundef 13)
  %24 = load i32, ptr @proto_btle, align 4
  %25 = tail call ptr @prefs_register_protocol_subtree(ptr noundef nonnull @.str.824, i32 noundef %24, ptr noundef null)
  tail call void @prefs_register_static_text_preference(ptr noundef %25, ptr noundef nonnull @.str.825, ptr noundef nonnull @.str.826, ptr noundef nonnull @.str.827)
  tail call void @prefs_register_bool_preference(ptr noundef %25, ptr noundef nonnull @.str.828, ptr noundef nonnull @.str.829, ptr noundef nonnull @.str.830, ptr noundef nonnull @btle_detect_retransmit)
  tail call void @reassembly_table_register(ptr noundef nonnull @btle_l2cap_msg_reassembly_table, ptr noundef nonnull @addresses_reassembly_table_functions)
  tail call void @reassembly_table_register(ptr noundef nonnull @btle_ea_host_advertising_data_reassembly_table, ptr noundef nonnull @addresses_reassembly_table_functions)
  tail call void @register_init_routine(ptr noundef nonnull @btle_init)
  ret void
}